target datalayout = "e-m:e-p270:32:32-p271:32:32-p272:64:64-i64:64-i128:128-f80:128-n8:16:32:64-S128"
target triple = "x86_64-pc-linux-gnu"

%struct.lv_ll_t = type { i32, ptr, ptr }
%struct._lv_group_t = type { %struct.lv_ll_t, ptr, ptr, ptr, ptr, i8 }

; Function Attrs: nounwind uwtable
define internal ptr @get_indev(ptr noundef %0) #0 {
  %2 = alloca ptr, align 8
  %3 = alloca ptr, align 8
  %4 = alloca ptr, align 8
  %5 = alloca ptr, align 8
  %6 = alloca i32, align 4
  %7 = alloca i32, align 4
  store ptr %0, ptr %3, align 8, !tbaa !3
  call void @llvm.lifetime.start.p0(i64 8, ptr %4) #3
  store ptr null, ptr %4, align 8, !tbaa !3
  call void @llvm.lifetime.start.p0(i64 8, ptr %5) #3
  %8 = call ptr @lv_indev_get_next(ptr noundef null)
  store ptr %8, ptr %5, align 8, !tbaa !3
  br label %9

9:                                                ; preds = %31, %1
  %10 = load ptr, ptr %5, align 8, !tbaa !3
  %11 = icmp ne ptr %10, null
  br i1 %11, label %12, label %32

12:                                               ; preds = %9
  call void @llvm.lifetime.start.p0(i64 4, ptr %6) #3
  %13 = load ptr, ptr %5, align 8, !tbaa !3
  %14 = call i32 @lv_indev_get_type(ptr noundef %13)
  store i32 %14, ptr %6, align 4, !tbaa !27
  %15 = load i32, ptr %6, align 4, !tbaa !27
  %16 = icmp eq i32 %15, 1
  br i1 %16, label %17, label %19

17:                                               ; preds = %12
  %18 = load ptr, ptr %5, align 8, !tbaa !3
  store ptr %18, ptr %2, align 8
  store i32 1, ptr %7, align 4
  br label %29

19:                                               ; preds = %12
  %20 = load ptr, ptr %5, align 8, !tbaa !3
  %21 = call ptr @lv_indev_get_group(ptr noundef %20)
  %22 = load ptr, ptr %3, align 8, !tbaa !3
  %23 = icmp eq ptr %21, %22
  br i1 %23, label %24, label %26

24:                                               ; preds = %19
  %25 = load ptr, ptr %5, align 8, !tbaa !3
  store ptr %25, ptr %4, align 8, !tbaa !3
  br label %26

26:                                               ; preds = %24, %19
  %27 = load ptr, ptr %5, align 8, !tbaa !3
  %28 = call ptr @lv_indev_get_next(ptr noundef %27)
  store ptr %28, ptr %5, align 8, !tbaa !3
  store i32 0, ptr %7, align 4
  br label %29

29:                                               ; preds = %26, %17
  call void @llvm.lifetime.end.p0(i64 4, ptr %6) #3
  %30 = load i32, ptr %7, align 4
  switch i32 %30, label %34 [
    i32 0, label %31
  ]

31:                                               ; preds = %29
  br label %9, !llvm.loop !28

32:                                               ; preds = %9
  %33 = load ptr, ptr %4, align 8, !tbaa !3
  store ptr %33, ptr %2, align 8
  store i32 1, ptr %7, align 4
  br label %34

34:                                               ; preds = %32, %29
  call void @llvm.lifetime.end.p0(i64 8, ptr %5) #3
  call void @llvm.lifetime.end.p0(i64 8, ptr %4) #3
  %35 = load ptr, ptr %2, align 8
  ret ptr %35
}

; Function Attrs: nounwind uwtable
define void @lv_group_focus_obj(ptr noundef %0) #0 {
  %2 = alloca ptr, align 8
  %3 = alloca ptr, align 8
  %4 = alloca i32, align 4
  %5 = alloca ptr, align 8
  %6 = alloca i32, align 4
  %7 = alloca i32, align 4
  store ptr %0, ptr %2, align 8, !tbaa !3
  %8 = load ptr, ptr %2, align 8, !tbaa !3
  %9 = icmp eq ptr %8, null
  br i1 %9, label %10, label %11

10:                                               ; preds = %1
  br label %117

11:                                               ; preds = %1
  call void @llvm.lifetime.start.p0(i64 8, ptr %3) #3
  %12 = load ptr, ptr %2, align 8, !tbaa !3
  %13 = call ptr @lv_obj_get_group(ptr noundef %12)
  store ptr %13, ptr %3, align 8, !tbaa !3
  %14 = load ptr, ptr %3, align 8, !tbaa !3
  %15 = icmp eq ptr %14, null
  br i1 %15, label %16, label %17

16:                                               ; preds = %11
  store i32 1, ptr %4, align 4
  br label %115

17:                                               ; preds = %11
  %18 = load ptr, ptr %3, align 8, !tbaa !3
  %19 = getelementptr inbounds nuw %struct._lv_group_t, ptr %18, i32 0, i32 5
  %20 = load i8, ptr %19, align 8
  %21 = and i8 %20, 1
  %22 = zext i8 %21 to i32
  %23 = icmp ne i32 %22, 0
  br i1 %23, label %24, label %25

24:                                               ; preds = %17
  store i32 1, ptr %4, align 4
  br label %115

25:                                               ; preds = %17
  %26 = load ptr, ptr %3, align 8, !tbaa !3
  call void @lv_group_set_editing(ptr noundef %26, i1 noundef zeroext false)
  call void @llvm.lifetime.start.p0(i64 8, ptr %5) #3
  %27 = load ptr, ptr %3, align 8, !tbaa !3
  %28 = getelementptr inbounds nuw %struct._lv_group_t, ptr %27, i32 0, i32 0
  %29 = call ptr @lv_ll_get_head(ptr noundef %28)
  store ptr %29, ptr %5, align 8, !tbaa !3
  br label %30

30:                                               ; preds = %108, %25
  %31 = load ptr, ptr %5, align 8, !tbaa !3
  %32 = icmp ne ptr %31, null
  br i1 %32, label %33, label %113

33:                                               ; preds = %30
  %34 = load ptr, ptr %5, align 8, !tbaa !3
  %35 = load ptr, ptr %34, align 8, !tbaa !3
  %36 = load ptr, ptr %2, align 8, !tbaa !3
  %37 = icmp eq ptr %35, %36
  br i1 %37, label %38, label %107

38:                                               ; preds = %33
  %39 = load ptr, ptr %3, align 8, !tbaa !3
  %40 = getelementptr inbounds nuw %struct._lv_group_t, ptr %39, i32 0, i32 1
  %41 = load ptr, ptr %40, align 8, !tbaa !7
  %42 = icmp ne ptr %41, null
  br i1 %42, label %43, label %69

43:                                               ; preds = %38
  %44 = load ptr, ptr %2, align 8, !tbaa !3
  %45 = load ptr, ptr %3, align 8, !tbaa !3
  %46 = getelementptr inbounds nuw %struct._lv_group_t, ptr %45, i32 0, i32 1
  %47 = load ptr, ptr %46, align 8, !tbaa !7
  %48 = load ptr, ptr %47, align 8, !tbaa !3
  %49 = icmp ne ptr %44, %48
  br i1 %49, label %50, label %69

50:                                               ; preds = %43
  call void @llvm.lifetime.start.p0(i64 4, ptr %6) #3
  %51 = load ptr, ptr %3, align 8, !tbaa !3
  %52 = getelementptr inbounds nuw %struct._lv_group_t, ptr %51, i32 0, i32 1
  %53 = load ptr, ptr %52, align 8, !tbaa !7
  %54 = load ptr, ptr %53, align 8, !tbaa !3
  %55 = load ptr, ptr %3, align 8, !tbaa !3
  %56 = call ptr @get_indev(ptr noundef %55)
  %57 = call i32 @lv_obj_send_event(ptr noundef %54, i32 noundef 20, ptr noundef %56)
  store i32 %57, ptr %6, align 4, !tbaa !27
  %58 = load i32, ptr %6, align 4, !tbaa !27
  %59 = icmp ne i32 %58, 1
  br i1 %59, label %60, label %61

60:                                               ; preds = %50
  store i32 1, ptr %4, align 4
  br label %66

61:                                               ; preds = %50
  %62 = load ptr, ptr %3, align 8, !tbaa !3
  %63 = getelementptr inbounds nuw %struct._lv_group_t, ptr %62, i32 0, i32 1
  %64 = load ptr, ptr %63, align 8, !tbaa !7
  %65 = load ptr, ptr %64, align 8, !tbaa !3
  call void @lv_obj_invalidate(ptr noundef %65)
  store i32 0, ptr %4, align 4
  br label %66

66:                                               ; preds = %61, %60
  call void @llvm.lifetime.end.p0(i64 4, ptr %6) #3
  %67 = load i32, ptr %4, align 4
  switch i32 %67, label %114 [
    i32 0, label %68
  ]

68:                                               ; preds = %66
  br label %69

69:                                               ; preds = %68, %43, %38
  %70 = load ptr, ptr %5, align 8, !tbaa !3
  %71 = load ptr, ptr %3, align 8, !tbaa !3
  %72 = getelementptr inbounds nuw %struct._lv_group_t, ptr %71, i32 0, i32 1
  store ptr %70, ptr %72, align 8, !tbaa !7
  %73 = load ptr, ptr %3, align 8, !tbaa !3
  %74 = getelementptr inbounds nuw %struct._lv_group_t, ptr %73, i32 0, i32 1
  %75 = load ptr, ptr %74, align 8, !tbaa !7
  %76 = icmp ne ptr %75, null
  br i1 %76, label %77, label %106

77:                                               ; preds = %69
  %78 = load ptr, ptr %3, align 8, !tbaa !3
  %79 = getelementptr inbounds nuw %struct._lv_group_t, ptr %78, i32 0, i32 2
  %80 = load ptr, ptr %79, align 8, !tbaa !11
  %81 = icmp ne ptr %80, null
  br i1 %81, label %82, label %87

82:                                               ; preds = %77
  %83 = load ptr, ptr %3, align 8, !tbaa !3
  %84 = getelementptr inbounds nuw %struct._lv_group_t, ptr %83, i32 0, i32 2
  %85 = load ptr, ptr %84, align 8, !tbaa !11
  %86 = load ptr, ptr %3, align 8, !tbaa !3
  call void %85(ptr noundef %86)
  br label %87

87:                                               ; preds = %82, %77
  call void @llvm.lifetime.start.p0(i64 4, ptr %7) #3
  %88 = load ptr, ptr %3, align 8, !tbaa !3
  %89 = getelementptr inbounds nuw %struct._lv_group_t, ptr %88, i32 0, i32 1
  %90 = load ptr, ptr %89, align 8, !tbaa !7
  %91 = load ptr, ptr %90, align 8, !tbaa !3
  %92 = load ptr, ptr %3, align 8, !tbaa !3
  %93 = call ptr @get_indev(ptr noundef %92)
  %94 = call i32 @lv_obj_send_event(ptr noundef %91, i32 noundef 19, ptr noundef %93)
  store i32 %94, ptr %7, align 4, !tbaa !27
  %95 = load i32, ptr %7, align 4, !tbaa !27
  %96 = icmp ne i32 %95, 1
  br i1 %96, label %97, label %98

97:                                               ; preds = %87
  store i32 1, ptr %4, align 4
  br label %103

98:                                               ; preds = %87
  %99 = load ptr, ptr %3, align 8, !tbaa !3
  %100 = getelementptr inbounds nuw %struct._lv_group_t, ptr %99, i32 0, i32 1
  %101 = load ptr, ptr %100, align 8, !tbaa !7
  %102 = load ptr, ptr %101, align 8, !tbaa !3
  call void @lv_obj_invalidate(ptr noundef %102)
  store i32 0, ptr %4, align 4
  br label %103

103:                                              ; preds = %98, %97
  call void @llvm.lifetime.end.p0(i64 4, ptr %7) #3
  %104 = load i32, ptr %4, align 4
  switch i32 %104, label %114 [
    i32 0, label %105
  ]

105:                                              ; preds = %103
  br label %106

106:                                              ; preds = %105, %69
  br label %113

107:                                              ; preds = %33
  br label %108

108:                                              ; preds = %107
  %109 = load ptr, ptr %3, align 8, !tbaa !3
  %110 = getelementptr inbounds nuw %struct._lv_group_t, ptr %109, i32 0, i32 0
  %111 = load ptr, ptr %5, align 8, !tbaa !3
  %112 = call ptr @lv_ll_get_next(ptr noundef %110, ptr noundef %111)
  store ptr %112, ptr %5, align 8, !tbaa !3
  br label %30, !llvm.loop !42

113:                                              ; preds = %106, %30
  store i32 0, ptr %4, align 4
  br label %114

114:                                              ; preds = %113, %103, %66
  call void @llvm.lifetime.end.p0(i64 8, ptr %5) #3
  br label %115

115:                                              ; preds = %114, %24, %16
  call void @llvm.lifetime.end.p0(i64 8, ptr %3) #3
  %116 = load i32, ptr %4, align 4
  switch i32 %116, label %118 [
    i32 0, label %117
    i32 1, label %117
  ]

117:                                              ; preds = %10, %115, %115
  ret void

118:                                              ; preds = %115
  unreachable
}