; Function Attrs: nounwind uwtable
define void @lv_group_focus_obj(ptr noundef %0) local_unnamed_addr #0 {
  %2 = icmp eq ptr %0, null
  br i1 %2, label %.critedge, label %3

3:                                                ; preds = %1
  %4 = tail call ptr @lv_obj_get_group(ptr noundef nonnull %0) #10
  %5 = icmp eq ptr %4, null
  br i1 %5, label %.critedge, label %6

6:                                                ; preds = %3
  %7 = getelementptr inbounds nuw i8, ptr %4, i64 56
  %8 = load i8, ptr %7, align 8
  %9 = and i8 %8, 1
  %.not = icmp eq i8 %9, 0
  br i1 %.not, label %10, label %.critedge

10:                                               ; preds = %6
  tail call void @lv_group_set_editing(ptr noundef nonnull %4, i1 noundef zeroext false)
  %11 = tail call ptr @lv_ll_get_head(ptr noundef nonnull %4) #10
  %.not3654 = icmp eq ptr %11, null
  br i1 %.not3654, label %.critedge, label %.lr.ph

.lr.ph:                                           ; preds = %10, %47
  %.03055 = phi ptr [ %48, %47 ], [ %11, %10 ]
  %12 = load ptr, ptr %.03055, align 8, !tbaa !11
  %13 = icmp eq ptr %12, %0
  br i1 %13, label %14, label %47

14:                                               ; preds = %.lr.ph
  %15 = getelementptr inbounds nuw i8, ptr %4, i64 24
  %16 = load ptr, ptr %15, align 8, !tbaa !3
  %.not37 = icmp eq ptr %16, null
  br i1 %.not37, label %30, label %17

17:                                               ; preds = %14
  %18 = load ptr, ptr %16, align 8, !tbaa !11
  %.not38 = icmp eq ptr %0, %18
  br i1 %.not38, label %30, label %19

19:                                               ; preds = %17
  %20 = tail call ptr @lv_indev_get_next(ptr noundef null) #10
  %.not20.i = icmp eq ptr %20, null
  br i1 %.not20.i, label %get_indev.exit, label %.lr.ph.i

.lr.ph.i:                                         ; preds = %19, %22
  %.01122.i = phi ptr [ %25, %22 ], [ %20, %19 ]
  %.01321.i = phi ptr [ %spec.select.i, %22 ], [ null, %19 ]
  %21 = tail call i32 @lv_indev_get_type(ptr noundef nonnull %.01122.i) #10
  %.not16.i = icmp eq i32 %21, 1
  br i1 %.not16.i, label %get_indev.exit, label %22

22:                                               ; preds = %.lr.ph.i
  %23 = tail call ptr @lv_indev_get_group(ptr noundef nonnull %.01122.i) #10
  %24 = icmp eq ptr %23, %4
  %spec.select.i = select i1 %24, ptr %.01122.i, ptr %.01321.i
  %25 = tail call ptr @lv_indev_get_next(ptr noundef nonnull %.01122.i) #10
  %.not.i = icmp eq ptr %25, null
  br i1 %.not.i, label %get_indev.exit, label %.lr.ph.i, !llvm.loop !12

get_indev.exit:                                   ; preds = %.lr.ph.i, %22, %19
  %.2.i = phi ptr [ null, %19 ], [ %spec.select.i, %22 ], [ %.01122.i, %.lr.ph.i ]
  %26 = tail call i32 @lv_obj_send_event(ptr noundef %18, i32 noundef 20, ptr noundef %.2.i) #10
  %.not39 = icmp eq i32 %26, 1
  br i1 %.not39, label %27, label %.critedge

27:                                               ; preds = %get_indev.exit
  %28 = load ptr, ptr %15, align 8, !tbaa !3
  %29 = load ptr, ptr %28, align 8, !tbaa !11
  tail call void @lv_obj_invalidate(ptr noundef %29) #10
  br label %30

30:                                               ; preds = %27, %17, %14
  store ptr %.03055, ptr %15, align 8, !tbaa !3
  %31 = getelementptr inbounds nuw i8, ptr %4, i64 32
  %32 = load ptr, ptr %31, align 8, !tbaa !39
  %.not40 = icmp eq ptr %32, null
  br i1 %.not40, label %34, label %33

33:                                               ; preds = %30
  tail call void %32(ptr noundef nonnull %4) #10
  %.pre = load ptr, ptr %15, align 8, !tbaa !3
  br label %34

34:                                               ; preds = %33, %30
  %35 = phi ptr [ %.pre, %33 ], [ %.03055, %30 ]
  %36 = load ptr, ptr %35, align 8, !tbaa !11
  %37 = tail call ptr @lv_indev_get_next(ptr noundef null) #10
  %.not20.i44 = icmp eq ptr %37, null
  br i1 %.not20.i44, label %get_indev.exit52, label %.lr.ph.i45

.lr.ph.i45:                                       ; preds = %34, %39
  %.01122.i46 = phi ptr [ %42, %39 ], [ %37, %34 ]
  %.01321.i47 = phi ptr [ %spec.select.i49, %39 ], [ null, %34 ]
  %38 = tail call i32 @lv_indev_get_type(ptr noundef nonnull %.01122.i46) #10
  %.not16.i48 = icmp eq i32 %38, 1
  br i1 %.not16.i48, label %get_indev.exit52, label %39

39:                                               ; preds = %.lr.ph.i45
  %40 = tail call ptr @lv_indev_get_group(ptr noundef nonnull %.01122.i46) #10
  %41 = icmp eq ptr %40, %4
  %spec.select.i49 = select i1 %41, ptr %.01122.i46, ptr %.01321.i47
  %42 = tail call ptr @lv_indev_get_next(ptr noundef nonnull %.01122.i46) #10
  %.not.i50 = icmp eq ptr %42, null
  br i1 %.not.i50, label %get_indev.exit52, label %.lr.ph.i45, !llvm.loop !12

get_indev.exit52:                                 ; preds = %.lr.ph.i45, %39, %34
  %.2.i51 = phi ptr [ null, %34 ], [ %spec.select.i49, %39 ], [ %.01122.i46, %.lr.ph.i45 ]
  %43 = tail call i32 @lv_obj_send_event(ptr noundef %36, i32 noundef 19, ptr noundef %.2.i51) #10
  %.not41 = icmp eq i32 %43, 1
  br i1 %.not41, label %44, label %.critedge

44:                                               ; preds = %get_indev.exit52
  %45 = load ptr, ptr %15, align 8, !tbaa !3
  %46 = load ptr, ptr %45, align 8, !tbaa !11
  tail call void @lv_obj_invalidate(ptr noundef %46) #10
  br label %.critedge

47:                                               ; preds = %.lr.ph
  %48 = tail call ptr @lv_ll_get_next(ptr noundef nonnull %4, ptr noundef nonnull %.03055) #10
  %.not36 = icmp eq ptr %48, null
  br i1 %.not36, label %.critedge, label %.lr.ph, !llvm.loop !40

.critedge:                                        ; preds = %47, %10, %44, %3, %6, %get_indev.exit52, %get_indev.exit, %1
  ret void
}